target datalayout = "e-m:e-p270:32:32-p271:32:32-p272:64:64-i64:64-i128:128-f80:128-n8:16:32:64-S128"
target triple = "x86_64-pc-linux-gnu"

@.str.96 = private unnamed_addr constant [51 x i8] c"PCRE (Perl Compatible Regular Expressions) Support\00", align 1
@.str.97 = private unnamed_addr constant [8 x i8] c"enabled\00", align 1
@.str.98 = private unnamed_addr constant [21 x i8] c"PCRE Library Version\00", align 1
@.str.99 = private unnamed_addr constant [21 x i8] c"PCRE Unicode Version\00", align 1
@.str.100 = private unnamed_addr constant [17 x i8] c"PCRE JIT Support\00", align 1
@.str.101 = private unnamed_addr constant [9 x i8] c"disabled\00", align 1
@.str.102 = private unnamed_addr constant [8 x i8] c"unknown\00", align 1
@.str.103 = private unnamed_addr constant [16 x i8] c"PCRE JIT Target\00", align 1

; Function Attrs: nounwind uwtable
define internal ptr @_pcre2_config_str(i32 noundef %0) #0 {
  %2 = alloca ptr, align 8
  %3 = alloca i32, align 4
  %4 = alloca i32, align 4
  %5 = alloca ptr, align 8
  %6 = alloca i32, align 4
  store i32 %0, ptr %3, align 4, !tbaa !13
  call void @llvm.lifetime.start.p0(i64 4, ptr %4) #17
  %7 = load i32, ptr %3, align 4, !tbaa !13
  %8 = call i32 @php_pcre2_config(i32 noundef %7, ptr noundef null)
  store i32 %8, ptr %4, align 4, !tbaa !13
  call void @llvm.lifetime.start.p0(i64 8, ptr %5) #17
  %9 = load i32, ptr %4, align 4, !tbaa !13
  %10 = add nsw i32 %9, 1
  %11 = sext i32 %10 to i64
  %12 = call noalias ptr @malloc(i64 noundef %11) #25
  store ptr %12, ptr %5, align 8, !tbaa !15
  %13 = load i32, ptr %3, align 4, !tbaa !13
  %14 = load ptr, ptr %5, align 8, !tbaa !15
  %15 = call i32 @php_pcre2_config(i32 noundef %13, ptr noundef %14)
  store i32 %15, ptr %4, align 4, !tbaa !13
  %16 = load i32, ptr %4, align 4, !tbaa !13
  %17 = icmp ne i32 %16, 0
  br i1 %17, label %20, label %18

18:                                               ; preds = %1
  %19 = load ptr, ptr %5, align 8, !tbaa !15
  call void @free(ptr noundef %19) #17
  store ptr null, ptr %2, align 8
  store i32 1, ptr %6, align 4
  br label %22

20:                                               ; preds = %1
  %21 = load ptr, ptr %5, align 8, !tbaa !15
  store ptr %21, ptr %2, align 8
  store i32 1, ptr %6, align 4
  br label %22

22:                                               ; preds = %20, %18
  call void @llvm.lifetime.end.p0(i64 8, ptr %5) #17
  call void @llvm.lifetime.end.p0(i64 4, ptr %4) #17
  %23 = load ptr, ptr %2, align 8
  ret ptr %23
}

; Function Attrs: nounwind uwtable
define internal void @zm_info_pcre(ptr noundef %0) #0 {
  %2 = alloca ptr, align 8
  %3 = alloca i32, align 4
  %4 = alloca ptr, align 8
  %5 = alloca ptr, align 8
  %6 = alloca ptr, align 8
  store ptr %0, ptr %2, align 8, !tbaa !145
  call void @llvm.lifetime.start.p0(i64 4, ptr %3) #17
  store i32 0, ptr %3, align 4, !tbaa !13
  call void @llvm.lifetime.start.p0(i64 8, ptr %4) #17
  %7 = call ptr @_pcre2_config_str(i32 noundef 2)
  store ptr %7, ptr %4, align 8, !tbaa !15
  call void @llvm.lifetime.start.p0(i64 8, ptr %5) #17
  %8 = call ptr @_pcre2_config_str(i32 noundef 11)
  store ptr %8, ptr %5, align 8, !tbaa !15
  call void @llvm.lifetime.start.p0(i64 8, ptr %6) #17
  %9 = call ptr @_pcre2_config_str(i32 noundef 10)
  store ptr %9, ptr %6, align 8, !tbaa !15
  call void @php_info_print_table_start()
  call void (i32, ...) @php_info_print_table_row(i32 noundef 2, ptr noundef @.str.96, ptr noundef @.str.97)
  %10 = load ptr, ptr %5, align 8, !tbaa !15
  call void (i32, ...) @php_info_print_table_row(i32 noundef 2, ptr noundef @.str.98, ptr noundef %10)
  %11 = load ptr, ptr %5, align 8, !tbaa !15
  call void @free(ptr noundef %11) #17
  %12 = load ptr, ptr %6, align 8, !tbaa !15
  call void (i32, ...) @php_info_print_table_row(i32 noundef 2, ptr noundef @.str.99, ptr noundef %12)
  %13 = load ptr, ptr %6, align 8, !tbaa !15
  call void @free(ptr noundef %13) #17
  %14 = call i32 @php_pcre2_config(i32 noundef 1, ptr noundef %3)
  %15 = icmp ne i32 %14, 0
  br i1 %15, label %20, label %16

16:                                               ; preds = %1
  %17 = load i32, ptr %3, align 4, !tbaa !13
  %18 = icmp ne i32 %17, 0
  %19 = select i1 %18, ptr @.str.97, ptr @.str.101
  call void (i32, ...) @php_info_print_table_row(i32 noundef 2, ptr noundef @.str.100, ptr noundef %19)
  br label %21

20:                                               ; preds = %1
  call void (i32, ...) @php_info_print_table_row(i32 noundef 2, ptr noundef @.str.100, ptr noundef @.str.102)
  br label %21

21:                                               ; preds = %20, %16
  %22 = load ptr, ptr %4, align 8, !tbaa !15
  %23 = icmp ne ptr %22, null
  br i1 %23, label %24, label %26

24:                                               ; preds = %21
  %25 = load ptr, ptr %4, align 8, !tbaa !15
  call void (i32, ...) @php_info_print_table_row(i32 noundef 2, ptr noundef @.str.103, ptr noundef %25)
  br label %26

26:                                               ; preds = %24, %21
  %27 = load ptr, ptr %4, align 8, !tbaa !15
  call void @free(ptr noundef %27) #17
  call void @php_info_print_table_end()
  %28 = load ptr, ptr %2, align 8, !tbaa !145
  call void @display_ini_entries(ptr noundef %28)
  call void @llvm.lifetime.end.p0(i64 8, ptr %6) #17
  call void @llvm.lifetime.end.p0(i64 8, ptr %5) #17
  call void @llvm.lifetime.end.p0(i64 8, ptr %4) #17
  call void @llvm.lifetime.end.p0(i64 4, ptr %3) #17
  ret void
}