; Function Attrs: nounwind uwtable
define internal void @zm_info_pcre(ptr noundef %0) #0 {
  %2 = alloca i32, align 4
  call void @llvm.lifetime.start.p0(i64 4, ptr nonnull %2) #24
  store i32 0, ptr %2, align 4, !tbaa !51
  %3 = tail call i32 @php_pcre2_config(i32 noundef 2, ptr noundef null) #24
  %4 = add nsw i32 %3, 1
  %5 = sext i32 %4 to i64
  %6 = tail call noalias ptr @malloc(i64 noundef %5) #26
  %7 = tail call i32 @php_pcre2_config(i32 noundef 2, ptr noundef %6) #24
  %.not.i = icmp eq i32 %7, 0
  br i1 %.not.i, label %8, label %_pcre2_config_str.exit

8:                                                ; preds = %1
  tail call void @free(ptr noundef %6) #24
  br label %_pcre2_config_str.exit

_pcre2_config_str.exit:                           ; preds = %1, %8
  %.0.i = phi ptr [ null, %8 ], [ %6, %1 ]
  %9 = tail call i32 @php_pcre2_config(i32 noundef 11, ptr noundef null) #24
  %10 = add nsw i32 %9, 1
  %11 = sext i32 %10 to i64
  %12 = tail call noalias ptr @malloc(i64 noundef %11) #26
  %13 = tail call i32 @php_pcre2_config(i32 noundef 11, ptr noundef %12) #24
  %.not.i10 = icmp eq i32 %13, 0
  br i1 %.not.i10, label %14, label %_pcre2_config_str.exit12

14:                                               ; preds = %_pcre2_config_str.exit
  tail call void @free(ptr noundef %12) #24
  br label %_pcre2_config_str.exit12

_pcre2_config_str.exit12:                         ; preds = %_pcre2_config_str.exit, %14
  %.0.i11 = phi ptr [ null, %14 ], [ %12, %_pcre2_config_str.exit ]
  %15 = tail call i32 @php_pcre2_config(i32 noundef 10, ptr noundef null) #24
  %16 = add nsw i32 %15, 1
  %17 = sext i32 %16 to i64
  %18 = tail call noalias ptr @malloc(i64 noundef %17) #26
  %19 = tail call i32 @php_pcre2_config(i32 noundef 10, ptr noundef %18) #24
  %.not.i13 = icmp eq i32 %19, 0
  br i1 %.not.i13, label %20, label %_pcre2_config_str.exit15

20:                                               ; preds = %_pcre2_config_str.exit12
  tail call void @free(ptr noundef %18) #24
  br label %_pcre2_config_str.exit15

_pcre2_config_str.exit15:                         ; preds = %_pcre2_config_str.exit12, %20
  %.0.i14 = phi ptr [ null, %20 ], [ %18, %_pcre2_config_str.exit12 ]
  tail call void @php_info_print_table_start() #24
  tail call void (i32, ...) @php_info_print_table_row(i32 noundef 2, ptr noundef nonnull @.str.96, ptr noundef nonnull @.str.97) #24
  tail call void (i32, ...) @php_info_print_table_row(i32 noundef 2, ptr noundef nonnull @.str.98, ptr noundef %.0.i11) #24
  tail call void @free(ptr noundef %.0.i11) #24
  tail call void (i32, ...) @php_info_print_table_row(i32 noundef 2, ptr noundef nonnull @.str.99, ptr noundef %.0.i14) #24
  tail call void @free(ptr noundef %.0.i14) #24
  %21 = call i32 @php_pcre2_config(i32 noundef 1, ptr noundef nonnull %2) #24
  %.not = icmp eq i32 %21, 0
  %22 = load i32, ptr %2, align 4
  %.not8 = icmp eq i32 %22, 0
  %23 = select i1 %.not8, ptr @.str.101, ptr @.str.97
  %.str.102.sink = select i1 %.not, ptr %23, ptr @.str.102
  call void (i32, ...) @php_info_print_table_row(i32 noundef 2, ptr noundef nonnull @.str.100, ptr noundef nonnull %.str.102.sink) #24
  %.not9 = icmp eq ptr %.0.i, null
  br i1 %.not9, label %25, label %24

24:                                               ; preds = %_pcre2_config_str.exit15
  call void (i32, ...) @php_info_print_table_row(i32 noundef 2, ptr noundef nonnull @.str.103, ptr noundef nonnull %.0.i) #24
  br label %25

25:                                               ; preds = %24, %_pcre2_config_str.exit15
  call void @free(ptr noundef %.0.i) #24
  call void @php_info_print_table_end() #24
  call void @display_ini_entries(ptr noundef %0) #24
  call void @llvm.lifetime.end.p0(i64 4, ptr nonnull %2) #24
  ret void
}